target datalayout = "e-m:e-p270:32:32-p271:32:32-p272:64:64-i64:64-i128:128-f80:128-n8:16:32:64-S128"
target triple = "x86_64-pc-linux-gnu"

%"class.gmx::internal::AnalysisNeighborhoodSearchImpl" = type { i8, float, float, i8, i32, ptr, ptr, ptr, ptr, %struct.t_pbc, i8, i8, [3 x i8], %"class.std::vector", [3 x float], [3 x float], [3 x float], float, float, float, [3 x i32], %"class.std::vector.0", %"class.std::mutex", %"class.std::vector.5" }
%struct.t_pbc = type { i32, i32, i32, i32, [3 x [3 x float]], [3 x float], [3 x float], [3 x float], float, i32, [12 x [3 x i32]], [12 x [3 x float]] }
%"class.std::vector" = type { %"struct.std::_Vector_base" }
%"struct.std::_Vector_base" = type { %"struct.std::_Vector_base<gmx::BasicVector<float>, std::allocator<gmx::BasicVector<float>>>::_Vector_impl" }
%"struct.std::_Vector_base<gmx::BasicVector<float>, std::allocator<gmx::BasicVector<float>>>::_Vector_impl" = type { %"struct.std::_Vector_base<gmx::BasicVector<float>, std::allocator<gmx::BasicVector<float>>>::_Vector_impl_data" }
%"struct.std::_Vector_base<gmx::BasicVector<float>, std::allocator<gmx::BasicVector<float>>>::_Vector_impl_data" = type { ptr, ptr, ptr }
%"class.std::vector.0" = type { %"struct.std::_Vector_base.1" }
%"struct.std::_Vector_base.1" = type { %"struct.std::_Vector_base<std::vector<int>, std::allocator<std::vector<int>>>::_Vector_impl" }
%"struct.std::_Vector_base<std::vector<int>, std::allocator<std::vector<int>>>::_Vector_impl" = type { %"struct.std::_Vector_base<std::vector<int>, std::allocator<std::vector<int>>>::_Vector_impl_data" }
%"struct.std::_Vector_base<std::vector<int>, std::allocator<std::vector<int>>>::_Vector_impl_data" = type { ptr, ptr, ptr }
%"class.std::mutex" = type { %"class.std::__mutex_base" }
%"class.std::__mutex_base" = type { %union.pthread_mutex_t }
%union.pthread_mutex_t = type { %struct.__pthread_mutex_s }
%struct.__pthread_mutex_s = type { i32, i32, i32, i32, i32, i16, i16, %struct.__pthread_internal_list }
%struct.__pthread_internal_list = type { ptr, ptr }
%"class.std::vector.5" = type { %"struct.std::_Vector_base.6" }
%"struct.std::_Vector_base.6" = type { %"struct.std::_Vector_base<std::shared_ptr<gmx::internal::AnalysisNeighborhoodPairSearchImpl>, std::allocator<std::shared_ptr<gmx::internal::AnalysisNeighborhoodPairSearchImpl>>>::_Vector_impl" }
%"struct.std::_Vector_base<std::shared_ptr<gmx::internal::AnalysisNeighborhoodPairSearchImpl>, std::allocator<std::shared_ptr<gmx::internal::AnalysisNeighborhoodPairSearchImpl>>>::_Vector_impl" = type { %"struct.std::_Vector_base<std::shared_ptr<gmx::internal::AnalysisNeighborhoodPairSearchImpl>, std::allocator<std::shared_ptr<gmx::internal::AnalysisNeighborhoodPairSearchImpl>>>::_Vector_impl_data" }
%"struct.std::_Vector_base<std::shared_ptr<gmx::internal::AnalysisNeighborhoodPairSearchImpl>, std::allocator<std::shared_ptr<gmx::internal::AnalysisNeighborhoodPairSearchImpl>>>::_Vector_impl_data" = type { ptr, ptr, ptr }
%"class.gmx::BasicVector" = type { [3 x float] }

; Function Attrs: inlinehint mustprogress nounwind uwtable
define linkonce_odr noundef float @_ZSt4sqrtf(float noundef %0) #4 comdat {
  %2 = alloca float, align 4
  store float %0, ptr %2, align 4, !tbaa !9
  %3 = load float, ptr %2, align 4, !tbaa !9
  %4 = call float @sqrtf(float noundef %3) #20, !tbaa !57
  ret float %4
}

; Function Attrs: mustprogress nounwind uwtable
define linkonce_odr noundef float @_ZNK3gmx11BasicVectorIfEixEi(ptr noundef nonnull align 4 dereferenceable(12) %0, i32 noundef %1) #1 comdat align 2 {
  %3 = alloca ptr, align 8
  %4 = alloca i32, align 4
  store ptr %0, ptr %3, align 8, !tbaa !141
  store i32 %1, ptr %4, align 4, !tbaa !57
  %5 = load ptr, ptr %3, align 8
  %6 = getelementptr inbounds nuw %"class.gmx::BasicVector", ptr %5, i32 0, i32 0
  %7 = load i32, ptr %4, align 4, !tbaa !57
  %8 = sext i32 %7 to i64
  %9 = getelementptr inbounds [3 x float], ptr %6, i64 0, i64 %8
  %10 = load float, ptr %9, align 4, !tbaa !9
  ret float %10
}

; Function Attrs: mustprogress uwtable
define noundef float @_ZNK3gmx8internal30AnalysisNeighborhoodSearchImpl19computeCutoffExtentENS_11BasicVectorIfEEPKii(ptr noundef nonnull align 8 dereferenceable(624) %0, <2 x float> %1, float %2, ptr noundef %3, i32 noundef %4) #18 align 2 {
  %6 = alloca float, align 4
  %7 = alloca %"class.gmx::BasicVector", align 4
  %8 = alloca { <2 x float>, float }, align 4
  %9 = alloca ptr, align 8
  %10 = alloca ptr, align 8
  %11 = alloca i32, align 4
  %12 = alloca float, align 4
  %13 = alloca i32, align 4
  %14 = alloca i32, align 4
  %15 = alloca float, align 4
  %16 = getelementptr inbounds nuw { <2 x float>, float }, ptr %8, i32 0, i32 0
  store <2 x float> %1, ptr %16, align 4
  %17 = getelementptr inbounds nuw { <2 x float>, float }, ptr %8, i32 0, i32 1
  store float %2, ptr %17, align 4
  call void @llvm.memcpy.p0.p0.i64(ptr align 4 %7, ptr align 4 %8, i64 12, i1 false)
  store ptr %0, ptr %9, align 8, !tbaa !4
  store ptr %3, ptr %10, align 8, !tbaa !56
  store i32 %4, ptr %11, align 4, !tbaa !57
  %18 = load ptr, ptr %9, align 8
  %19 = load i32, ptr %11, align 4, !tbaa !57
  %20 = icmp eq i32 %19, 2
  br i1 %20, label %21, label %24

21:                                               ; preds = %5
  %22 = getelementptr inbounds nuw %"class.gmx::internal::AnalysisNeighborhoodSearchImpl", ptr %18, i32 0, i32 1
  %23 = load float, ptr %22, align 4, !tbaa !37
  store float %23, ptr %6, align 4
  br label %87

24:                                               ; preds = %5
  call void @llvm.lifetime.start.p0(i64 4, ptr %12) #20
  store float 0.000000e+00, ptr %12, align 4, !tbaa !9
  call void @llvm.lifetime.start.p0(i64 4, ptr %13) #20
  %25 = load i32, ptr %11, align 4, !tbaa !57
  %26 = add nsw i32 %25, 1
  store i32 %26, ptr %13, align 4, !tbaa !57
  br label %27

27:                                               ; preds = %71, %24
  %28 = load i32, ptr %13, align 4, !tbaa !57
  %29 = icmp slt i32 %28, 3
  br i1 %29, label %31, label %30

30:                                               ; preds = %27
  store i32 2, ptr %14, align 4
  call void @llvm.lifetime.end.p0(i64 4, ptr %13) #20
  br label %74

31:                                               ; preds = %27
  call void @llvm.lifetime.start.p0(i64 4, ptr %15) #20
  %32 = load ptr, ptr %10, align 8, !tbaa !56
  %33 = load i32, ptr %13, align 4, !tbaa !57
  %34 = sext i32 %33 to i64
  %35 = getelementptr inbounds i32, ptr %32, i64 %34
  %36 = load i32, ptr %35, align 4, !tbaa !57
  %37 = sitofp i32 %36 to float
  %38 = load i32, ptr %13, align 4, !tbaa !57
  %39 = call noundef float @_ZNK3gmx11BasicVectorIfEixEi(ptr noundef nonnull align 4 dereferenceable(12) %7, i32 noundef %38)
  %40 = fsub float %37, %39
  store float %40, ptr %15, align 4, !tbaa !9
  %41 = load float, ptr %15, align 4, !tbaa !9
  %42 = fcmp olt float %41, -1.000000e+00
  br i1 %42, label %43, label %46

43:                                               ; preds = %31
  %44 = load float, ptr %15, align 4, !tbaa !9
  %45 = fadd float %44, 1.000000e+00
  store float %45, ptr %15, align 4, !tbaa !9
  br label %51

46:                                               ; preds = %31
  %47 = load float, ptr %15, align 4, !tbaa !9
  %48 = fcmp ole float %47, 0.000000e+00
  br i1 %48, label %49, label %50

49:                                               ; preds = %46
  store i32 4, ptr %14, align 4
  br label %68

50:                                               ; preds = %46
  br label %51

51:                                               ; preds = %50, %43
  %52 = load float, ptr %15, align 4, !tbaa !9
  %53 = load float, ptr %15, align 4, !tbaa !9
  %54 = fmul float %52, %53
  %55 = getelementptr inbounds nuw %"class.gmx::internal::AnalysisNeighborhoodSearchImpl", ptr %18, i32 0, i32 15
  %56 = load i32, ptr %13, align 4, !tbaa !57
  %57 = sext i32 %56 to i64
  %58 = getelementptr inbounds [3 x float], ptr %55, i64 0, i64 %57
  %59 = load float, ptr %58, align 4, !tbaa !9
  %60 = fmul float %54, %59
  %61 = getelementptr inbounds nuw %"class.gmx::internal::AnalysisNeighborhoodSearchImpl", ptr %18, i32 0, i32 15
  %62 = load i32, ptr %13, align 4, !tbaa !57
  %63 = sext i32 %62 to i64
  %64 = getelementptr inbounds [3 x float], ptr %61, i64 0, i64 %63
  %65 = load float, ptr %64, align 4, !tbaa !9
  %66 = load float, ptr %12, align 4, !tbaa !9
  %67 = call float @llvm.fmuladd.f32(float %60, float %65, float %66)
  store float %67, ptr %12, align 4, !tbaa !9
  store i32 0, ptr %14, align 4
  br label %68

68:                                               ; preds = %51, %49
  call void @llvm.lifetime.end.p0(i64 4, ptr %15) #20
  %69 = load i32, ptr %14, align 4
  switch i32 %69, label %89 [
    i32 0, label %70
    i32 4, label %71
  ]

70:                                               ; preds = %68
  br label %71

71:                                               ; preds = %70, %68
  %72 = load i32, ptr %13, align 4, !tbaa !57
  %73 = add nsw i32 %72, 1
  store i32 %73, ptr %13, align 4, !tbaa !57
  br label %27, !llvm.loop !234

74:                                               ; preds = %30
  %75 = load float, ptr %12, align 4, !tbaa !9
  %76 = getelementptr inbounds nuw %"class.gmx::internal::AnalysisNeighborhoodSearchImpl", ptr %18, i32 0, i32 2
  %77 = load float, ptr %76, align 8, !tbaa !38
  %78 = fcmp oge float %75, %77
  br i1 %78, label %79, label %80

79:                                               ; preds = %74
  store float 0.000000e+00, ptr %6, align 4
  store i32 1, ptr %14, align 4
  br label %86

80:                                               ; preds = %74
  %81 = getelementptr inbounds nuw %"class.gmx::internal::AnalysisNeighborhoodSearchImpl", ptr %18, i32 0, i32 2
  %82 = load float, ptr %81, align 8, !tbaa !38
  %83 = load float, ptr %12, align 4, !tbaa !9
  %84 = fsub float %82, %83
  %85 = call noundef float @_ZSt4sqrtf(float noundef %84)
  store float %85, ptr %6, align 4
  store i32 1, ptr %14, align 4
  br label %86

86:                                               ; preds = %80, %79
  call void @llvm.lifetime.end.p0(i64 4, ptr %12) #20
  br label %87

87:                                               ; preds = %86, %21
  %88 = load float, ptr %6, align 4
  ret float %88

89:                                               ; preds = %68
  unreachable
}