; Function Attrs: mustprogress nofree nounwind memory(write, argmem: readwrite) uwtable
define noundef float @_ZNK3gmx8internal30AnalysisNeighborhoodSearchImpl19computeCutoffExtentENS_11BasicVectorIfEEPKii(ptr noundef nonnull readonly align 8 captures(none) dereferenceable(624) %0, <2 x float> %1, float %2, ptr noundef readonly captures(none) %3, i32 noundef %4) local_unnamed_addr #21 align 2 {
  %6 = alloca %"class.gmx::BasicVector", align 8
  store <2 x float> %1, ptr %6, align 8
  %.sroa.2.0..sroa_idx = getelementptr inbounds nuw i8, ptr %6, i64 8
  store float %2, ptr %.sroa.2.0..sroa_idx, align 8
  %7 = icmp eq i32 %4, 2
  br i1 %7, label %11, label %.preheader

.preheader:                                       ; preds = %5
  %8 = icmp slt i32 %4, 2
  br i1 %8, label %.lr.ph, label %._crit_edge

.lr.ph:                                           ; preds = %.preheader
  %9 = getelementptr inbounds nuw i8, ptr %0, i64 484
  %10 = sext i32 %4 to i64
  br label %17

11:                                               ; preds = %5
  %12 = getelementptr inbounds nuw i8, ptr %0, i64 4
  %13 = load float, ptr %12, align 4, !tbaa !34
  br label %39

._crit_edge:                                      ; preds = %35, %.preheader
  %.019.lcssa = phi float [ 0.000000e+00, %.preheader ], [ %.1, %35 ]
  %14 = getelementptr inbounds nuw i8, ptr %0, i64 8
  %15 = load float, ptr %14, align 8, !tbaa !35
  %16 = fcmp ult float %.019.lcssa, %15
  br i1 %16, label %36, label %39

17:                                               ; preds = %.lr.ph, %35
  %indvars.iv = phi i64 [ %10, %.lr.ph ], [ %indvars.iv.next, %35 ]
  %.01927 = phi float [ 0.000000e+00, %.lr.ph ], [ %.1, %35 ]
  %indvars.iv.next = add nsw i64 %indvars.iv, 1
  %18 = getelementptr inbounds i32, ptr %3, i64 %indvars.iv.next
  %19 = load i32, ptr %18, align 4, !tbaa !39
  %20 = sitofp i32 %19 to float
  %21 = getelementptr inbounds [3 x float], ptr %6, i64 0, i64 %indvars.iv.next
  %22 = load float, ptr %21, align 4, !tbaa !77
  %23 = fsub float %20, %22
  %24 = fcmp olt float %23, -1.000000e+00
  br i1 %24, label %25, label %27

25:                                               ; preds = %17
  %26 = fadd float %23, 1.000000e+00
  br label %29

27:                                               ; preds = %17
  %28 = fcmp ugt float %23, 0.000000e+00
  br i1 %28, label %29, label %35

29:                                               ; preds = %27, %25
  %.0 = phi float [ %26, %25 ], [ %23, %27 ]
  %30 = fmul float %.0, %.0
  %31 = getelementptr inbounds [3 x float], ptr %9, i64 0, i64 %indvars.iv.next
  %32 = load float, ptr %31, align 4, !tbaa !77
  %33 = fmul float %30, %32
  %34 = tail call float @llvm.fmuladd.f32(float %33, float %32, float %.01927)
  br label %35

35:                                               ; preds = %27, %29
  %.1 = phi float [ %34, %29 ], [ %.01927, %27 ]
  %exitcond.not = icmp eq i64 %indvars.iv.next, 2
  br i1 %exitcond.not, label %._crit_edge, label %17, !llvm.loop !127

36:                                               ; preds = %._crit_edge
  %37 = fsub float %15, %.019.lcssa
  %38 = tail call noundef float @sqrtf(float noundef %37) #36, !tbaa !39
  br label %39

39:                                               ; preds = %36, %._crit_edge, %11
  %.020 = phi float [ %13, %11 ], [ %38, %36 ], [ 0.000000e+00, %._crit_edge ]
  ret float %.020
}